target datalayout = "e-m:e-p270:32:32-p271:32:32-p272:64:64-i64:64-i128:128-f80:128-n8:16:32:64-S128"
target triple = "x86_64-pc-linux-gnu"

%struct.ec_group_st = type { ptr, ptr, %struct.bignum_st, %struct.bignum_st, i32, ptr, %struct.bignum_st, %struct.bignum_st, %struct.bignum_st, i32, ptr, %struct.bignum_st }
%struct.bignum_st = type { ptr, i32, i32, i32, i32 }
%struct.ec_point_st = type { ptr, %struct.bignum_st, %struct.bignum_st, %struct.bignum_st }

@.str = private unnamed_addr constant [118 x i8] c"generated/home/dtcxzyw/WorkSpace/Projects/compilers/llvm-opt-benchmark/bench/libquic/libquic/boringssl/crypto/ec/ec.c\00", align 1

; Function Attrs: nounwind uwtable
define hidden ptr @EC_POINT_new(ptr noundef %0) #1 {
  %2 = alloca ptr, align 8
  %3 = alloca ptr, align 8
  %4 = alloca ptr, align 8
  %5 = alloca i32, align 4
  store ptr %0, ptr %3, align 8, !tbaa !13
  call void @llvm.lifetime.start.p0(i64 8, ptr %4) #7
  %6 = load ptr, ptr %3, align 8, !tbaa !13
  %7 = icmp eq ptr %6, null
  br i1 %7, label %8, label %9

8:                                                ; preds = %1
  call void @ERR_put_error(i32 noundef 15, i32 noundef 0, i32 noundef 67, ptr noundef @.str, i32 noundef 680)
  store ptr null, ptr %2, align 8
  store i32 1, ptr %5, align 4
  br label %27

9:                                                ; preds = %1
  %10 = call noalias ptr @malloc(i64 noundef 80) #8
  store ptr %10, ptr %4, align 8, !tbaa !29
  %11 = load ptr, ptr %4, align 8, !tbaa !29
  %12 = icmp eq ptr %11, null
  br i1 %12, label %13, label %14

13:                                               ; preds = %9
  call void @ERR_put_error(i32 noundef 15, i32 noundef 0, i32 noundef 65, ptr noundef @.str, i32 noundef 686)
  store ptr null, ptr %2, align 8
  store i32 1, ptr %5, align 4
  br label %27

14:                                               ; preds = %9
  %15 = load ptr, ptr %3, align 8, !tbaa !13
  %16 = getelementptr inbounds nuw %struct.ec_group_st, ptr %15, i32 0, i32 0
  %17 = load ptr, ptr %16, align 8, !tbaa !15
  %18 = load ptr, ptr %4, align 8, !tbaa !29
  %19 = getelementptr inbounds nuw %struct.ec_point_st, ptr %18, i32 0, i32 0
  store ptr %17, ptr %19, align 8, !tbaa !31
  %20 = load ptr, ptr %4, align 8, !tbaa !29
  %21 = call i32 @ec_GFp_simple_point_init(ptr noundef %20)
  %22 = icmp ne i32 %21, 0
  br i1 %22, label %25, label %23

23:                                               ; preds = %14
  %24 = load ptr, ptr %4, align 8, !tbaa !29
  call void @free(ptr noundef %24) #7
  store ptr null, ptr %2, align 8
  store i32 1, ptr %5, align 4
  br label %27

25:                                               ; preds = %14
  %26 = load ptr, ptr %4, align 8, !tbaa !29
  store ptr %26, ptr %2, align 8
  store i32 1, ptr %5, align 4
  br label %27

27:                                               ; preds = %25, %23, %13, %8
  call void @llvm.lifetime.end.p0(i64 8, ptr %4) #7
  %28 = load ptr, ptr %2, align 8
  ret ptr %28
}