; Function Attrs: nounwind uwtable
define hidden noundef ptr @EC_POINT_new(ptr noundef readonly captures(address_is_null) %0) local_unnamed_addr #1 {
  %2 = icmp eq ptr %0, null
  br i1 %2, label %3, label %4

3:                                                ; preds = %1
  tail call void @ERR_put_error(i32 noundef 15, i32 noundef 0, i32 noundef 67, ptr noundef nonnull @.str, i32 noundef 680) #11
  br label %12

4:                                                ; preds = %1
  %5 = tail call noalias dereferenceable_or_null(80) ptr @malloc(i64 noundef 80) #12
  %6 = icmp eq ptr %5, null
  br i1 %6, label %7, label %8

7:                                                ; preds = %4
  tail call void @ERR_put_error(i32 noundef 15, i32 noundef 0, i32 noundef 65, ptr noundef nonnull @.str, i32 noundef 686) #11
  br label %12

8:                                                ; preds = %4
  %9 = load ptr, ptr %0, align 8, !tbaa !11
  store ptr %9, ptr %5, align 8, !tbaa !23
  %10 = tail call i32 @ec_GFp_simple_point_init(ptr noundef nonnull %5) #11
  %.not = icmp eq i32 %10, 0
  br i1 %.not, label %11, label %12

11:                                               ; preds = %8
  tail call void @free(ptr noundef nonnull %5) #11
  br label %12

12:                                               ; preds = %8, %11, %7, %3
  %.0 = phi ptr [ null, %3 ], [ null, %7 ], [ null, %11 ], [ %5, %8 ]
  ret ptr %.0
}